; Function Attrs: mustprogress uwtable
define void @_ZN7openvdb5v11_02io6StreamC2Ev(ptr noundef nonnull align 8 dereferenceable(80) %this) unnamed_addr #5 align 2 personality ptr @__gxx_personality_v0 {
entry:
  tail call void @_ZN7openvdb5v11_02io7ArchiveC2Ev(ptr noundef nonnull align 8 dereferenceable(65) %this)
  store ptr getelementptr inbounds ({ [6 x ptr] }, ptr @_ZTVN7openvdb5v11_02io6StreamE, i64 0, i32 0, i64 2), ptr %this, align 8
  %call = invoke noalias noundef nonnull dereferenceable(48) ptr @_Znwm(i64 noundef 48) #20
          to label %invoke.cont unwind label %lpad

invoke.cont:                                      ; preds = %entry
  %mImpl = getelementptr inbounds i8, ptr %this, i64 72
  tail call void @llvm.memset.p0.i64(ptr noundef nonnull align 8 dereferenceable(48) %call, i8 0, i64 48, i1 false)
  store ptr %call, ptr %mImpl, align 8
  ret void

lpad:                                             ; preds = %entry
  %0 = landingpad { ptr, i32 }
          cleanup
  tail call void @_ZN7openvdb5v11_02io7ArchiveD2Ev(ptr noundef nonnull align 8 dereferenceable(65) %this) #22
  resume { ptr, i32 } %0
}